target datalayout = "e-m:e-p270:32:32-p271:32:32-p272:64:64-i64:64-i128:128-f80:128-n8:16:32:64-S128"
target triple = "x86_64-pc-linux-gnu"

%struct._iface_toolbar_control = type { i32, i32, i32, ptr, ptr, i8, ptr, ptr, %union.anon, ptr }
%union.anon = type { ptr }

; Function Attrs: null_pointer_is_valid sspstrong uwtable
define hidden void @extcap_free_toolbar_control(ptr noundef %0) #0 {
  %2 = alloca ptr, align 8
  store ptr %0, ptr %2, align 8
  %3 = load ptr, ptr %2, align 8
  %4 = icmp eq ptr %3, null
  br i1 %4, label %5, label %6

5:                                                ; preds = %1
  br label %32

6:                                                ; preds = %1
  %7 = load ptr, ptr %2, align 8
  %8 = getelementptr inbounds nuw %struct._iface_toolbar_control, ptr %7, i32 0, i32 3
  %9 = load ptr, ptr %8, align 8
  call void @g_free(ptr noundef %9)
  %10 = load ptr, ptr %2, align 8
  %11 = getelementptr inbounds nuw %struct._iface_toolbar_control, ptr %10, i32 0, i32 4
  %12 = load ptr, ptr %11, align 8
  call void @g_free(ptr noundef %12)
  %13 = load ptr, ptr %2, align 8
  %14 = getelementptr inbounds nuw %struct._iface_toolbar_control, ptr %13, i32 0, i32 6
  %15 = load ptr, ptr %14, align 8
  call void @g_free(ptr noundef %15)
  %16 = load ptr, ptr %2, align 8
  %17 = getelementptr inbounds nuw %struct._iface_toolbar_control, ptr %16, i32 0, i32 7
  %18 = load ptr, ptr %17, align 8
  call void @g_free(ptr noundef %18)
  %19 = load ptr, ptr %2, align 8
  %20 = getelementptr inbounds nuw %struct._iface_toolbar_control, ptr %19, i32 0, i32 1
  %21 = load i32, ptr %20, align 4
  %22 = icmp eq i32 %21, 4
  br i1 %22, label %23, label %27

23:                                               ; preds = %6
  %24 = load ptr, ptr %2, align 8
  %25 = getelementptr inbounds nuw %struct._iface_toolbar_control, ptr %24, i32 0, i32 8
  %26 = load ptr, ptr %25, align 8
  call void @g_free(ptr noundef %26)
  br label %27

27:                                               ; preds = %23, %6
  %28 = load ptr, ptr %2, align 8
  %29 = getelementptr inbounds nuw %struct._iface_toolbar_control, ptr %28, i32 0, i32 9
  %30 = load ptr, ptr %29, align 8
  call void @g_list_free_full(ptr noundef %30, ptr noundef @extcap_free_toolbar_value)
  %31 = load ptr, ptr %2, align 8
  call void @g_free(ptr noundef %31)
  br label %32

32:                                               ; preds = %27, %5
  ret void
}