; Function Attrs: null_pointer_is_valid sspstrong uwtable
define hidden void @extcap_free_toolbar_control(ptr noundef %0) local_unnamed_addr #0 {
  %2 = icmp eq ptr %0, null
  br i1 %2, label %21, label %3

3:                                                ; preds = %1
  %4 = getelementptr inbounds nuw i8, ptr %0, i64 16
  %5 = load ptr, ptr %4, align 8
  tail call void @g_free(ptr noundef %5)
  %6 = getelementptr inbounds nuw i8, ptr %0, i64 24
  %7 = load ptr, ptr %6, align 8
  tail call void @g_free(ptr noundef %7)
  %8 = getelementptr inbounds nuw i8, ptr %0, i64 40
  %9 = load ptr, ptr %8, align 8
  tail call void @g_free(ptr noundef %9)
  %10 = getelementptr inbounds nuw i8, ptr %0, i64 48
  %11 = load ptr, ptr %10, align 8
  tail call void @g_free(ptr noundef %11)
  %12 = getelementptr inbounds nuw i8, ptr %0, i64 4
  %13 = load i32, ptr %12, align 4
  %14 = icmp eq i32 %13, 4
  br i1 %14, label %15, label %18

15:                                               ; preds = %3
  %16 = getelementptr inbounds nuw i8, ptr %0, i64 56
  %17 = load ptr, ptr %16, align 8
  tail call void @g_free(ptr noundef %17)
  br label %18

18:                                               ; preds = %15, %3
  %19 = getelementptr inbounds nuw i8, ptr %0, i64 64
  %20 = load ptr, ptr %19, align 8
  tail call void @g_list_free_full(ptr noundef %20, ptr noundef nonnull @extcap_free_toolbar_value)
  tail call void @g_free(ptr noundef nonnull %0)
  br label %21

21:                                               ; preds = %1, %18
  ret void
}